target datalayout = "e-m:e-p270:32:32-p271:32:32-p272:64:64-i64:64-i128:128-f80:128-n8:16:32:64-S128"
target triple = "x86_64-pc-linux-gnu"

%union.pthread_mutex_t = type { %struct.__pthread_mutex_s }
%struct.__pthread_mutex_s = type { i32, i32, i32, i32, i32, i16, i16, %struct.__pthread_internal_list }
%struct.__pthread_internal_list = type { ptr, ptr }

@sackd_lock = internal global %union.pthread_mutex_t zeroinitializer, align 8
@.str = private unnamed_addr constant [29 x i8] c"%s: pthread_mutex_lock(): %m\00", align 1
@sackd_nodes = internal global ptr null, align 8
@.str.2 = private unnamed_addr constant [31 x i8] c"%s: pthread_mutex_unlock(): %m\00", align 1
@.str.9 = private unnamed_addr constant [16 x i8] c"%s: removing %s\00", align 1
@__func__.sackd_mgr_remove_node = private unnamed_addr constant [22 x i8] c"sackd_mgr_remove_node\00", align 1

; Function Attrs: nounwind uwtable
define dso_local void @sackd_mgr_remove_node(ptr noundef %0) #0 {
  %2 = alloca ptr, align 8
  %3 = alloca i32, align 4
  %4 = alloca i32, align 4
  store ptr %0, ptr %2, align 8
  br label %5

5:                                                ; preds = %1
  br label %6

6:                                                ; preds = %5
  %7 = call i32 @get_log_level()
  %8 = icmp sge i32 %7, 5
  br i1 %8, label %9, label %11

9:                                                ; preds = %6
  %10 = load ptr, ptr %2, align 8
  call void (i32, ptr, ...) @log_var(i32 noundef 5, ptr noundef @.str.9, ptr noundef @__func__.sackd_mgr_remove_node, ptr noundef %10)
  br label %11

11:                                               ; preds = %9, %6
  br label %12

12:                                               ; preds = %11
  br label %13

13:                                               ; preds = %12
  br label %14

14:                                               ; preds = %13
  call void @llvm.lifetime.start.p0(i64 4, ptr %3) #7
  %15 = call i32 @pthread_mutex_lock(ptr noundef @sackd_lock) #7
  store i32 %15, ptr %3, align 4
  %16 = load i32, ptr %3, align 4
  %17 = icmp ne i32 %16, 0
  br i1 %17, label %18, label %21

18:                                               ; preds = %14
  %19 = load i32, ptr %3, align 4
  %20 = call ptr @__errno_location() #8
  store i32 %19, ptr %20, align 4
  call void (ptr, ...) @fatal_abort(ptr noundef @.str, ptr noundef @__func__.sackd_mgr_remove_node) #9
  unreachable

21:                                               ; preds = %14
  call void @llvm.lifetime.end.p0(i64 4, ptr %3) #7
  br label %22

22:                                               ; preds = %21
  %23 = load ptr, ptr @sackd_nodes, align 8
  %24 = icmp ne ptr %23, null
  br i1 %24, label %25, label %29

25:                                               ; preds = %22
  %26 = load ptr, ptr @sackd_nodes, align 8
  %27 = load ptr, ptr %2, align 8
  %28 = call i32 @list_delete_first(ptr noundef %26, ptr noundef @_find_sackd_node, ptr noundef %27)
  br label %29

29:                                               ; preds = %25, %22
  br label %30

30:                                               ; preds = %29
  call void @llvm.lifetime.start.p0(i64 4, ptr %4) #7
  %31 = call i32 @pthread_mutex_unlock(ptr noundef @sackd_lock) #7
  store i32 %31, ptr %4, align 4
  %32 = load i32, ptr %4, align 4
  %33 = icmp ne i32 %32, 0
  br i1 %33, label %34, label %37

34:                                               ; preds = %30
  %35 = load i32, ptr %4, align 4
  %36 = call ptr @__errno_location() #8
  store i32 %35, ptr %36, align 4
  call void (ptr, ...) @fatal_abort(ptr noundef @.str.2, ptr noundef @__func__.sackd_mgr_remove_node) #9
  unreachable

37:                                               ; preds = %30
  call void @llvm.lifetime.end.p0(i64 4, ptr %4) #7
  br label %38

38:                                               ; preds = %37
  ret void
}