; Function Attrs: nounwind uwtable
define dso_local void @sackd_mgr_remove_node(ptr noundef %0) local_unnamed_addr #0 {
  %2 = tail call i32 @get_log_level() #7
  %3 = icmp sgt i32 %2, 4
  br i1 %3, label %4, label %5

4:                                                ; preds = %1
  tail call void (i32, ptr, ...) @log_var(i32 noundef 5, ptr noundef nonnull @.str.9, ptr noundef nonnull @__func__.sackd_mgr_remove_node, ptr noundef %0) #7
  br label %5

5:                                                ; preds = %1, %4
  %6 = tail call i32 @pthread_mutex_lock(ptr noundef nonnull @sackd_lock) #7
  %.not = icmp eq i32 %6, 0
  br i1 %.not, label %9, label %7

7:                                                ; preds = %5
  %8 = tail call ptr @__errno_location() #8
  store i32 %6, ptr %8, align 4
  tail call void (ptr, ...) @fatal_abort(ptr noundef nonnull @.str, ptr noundef nonnull @__func__.sackd_mgr_remove_node) #9
  unreachable

9:                                                ; preds = %5
  %10 = load ptr, ptr @sackd_nodes, align 8
  %.not7 = icmp eq ptr %10, null
  br i1 %.not7, label %13, label %11

11:                                               ; preds = %9
  %12 = tail call i32 @list_delete_first(ptr noundef nonnull %10, ptr noundef nonnull @_find_sackd_node, ptr noundef %0) #7
  br label %13

13:                                               ; preds = %9, %11
  %14 = tail call i32 @pthread_mutex_unlock(ptr noundef nonnull @sackd_lock) #7
  %.not8 = icmp eq i32 %14, 0
  br i1 %.not8, label %17, label %15

15:                                               ; preds = %13
  %16 = tail call ptr @__errno_location() #8
  store i32 %14, ptr %16, align 4
  tail call void (ptr, ...) @fatal_abort(ptr noundef nonnull @.str.2, ptr noundef nonnull @__func__.sackd_mgr_remove_node) #9
  unreachable

17:                                               ; preds = %13
  ret void
}